target datalayout = "e-m:e-p270:32:32-p271:32:32-p272:64:64-i64:64-i128:128-f80:128-n8:16:32:64-S128"
target triple = "x86_64-pc-linux-gnu"

%struct.t_inputrec = type { i32, i32, i64, i32, i64, i32, i32, i32, i32, i32, i32, i32, i32, i32, i32, i32, double, double, i8, %"class.std::vector", float, float, float, i32, i32, i32, i32, float, float, i32, float, i32, i32, i8, i8, i32, float, i32, i32, i8, %struct.PressureCouplingOptions, %"class.std::vector.3", %"class.std::vector.3", i32, float, float, float, float, i32, i32, float, float, float, float, i8, i32, i32, float, float, i32, float, float, i32, %"class.std::unique_ptr", i8, %"class.std::unique_ptr.10", i8, %"class.std::unique_ptr.18", i32, float, i32, i8, i32, float, float, float, i32, float, float, i32, float, i32, i32, i32, i32, float, i32, i8, float, i64, i32, i32, float, [2 x i32], [2 x float], float, i8, %"class.std::unique_ptr.26", i8, %"class.std::unique_ptr.34", i8, %"class.std::unique_ptr.42", i32, ptr, i8, ptr, float, [3 x [3 x float]], i32, i32, i32, i32, float, float, float, float, %struct.t_grpopts, i8, i8, i8, i8, ptr, %"class.std::unique_ptr.50" }
%"class.std::vector" = type { %"struct.std::_Vector_base" }
%"struct.std::_Vector_base" = type { %"struct.std::_Vector_base<gmx::MtsLevel, std::allocator<gmx::MtsLevel>>::_Vector_impl" }
%"struct.std::_Vector_base<gmx::MtsLevel, std::allocator<gmx::MtsLevel>>::_Vector_impl" = type { %"struct.std::_Vector_base<gmx::MtsLevel, std::allocator<gmx::MtsLevel>>::_Vector_impl_data" }
%"struct.std::_Vector_base<gmx::MtsLevel, std::allocator<gmx::MtsLevel>>::_Vector_impl_data" = type { ptr, ptr, ptr }
%struct.PressureCouplingOptions = type { i32, i32, i32, float, [3 x [3 x float]], [3 x [3 x float]], i32 }
%"class.std::vector.3" = type { %"struct.std::_Vector_base.4" }
%"struct.std::_Vector_base.4" = type { %"struct.std::_Vector_base<gmx::BasicVector<float>, std::allocator<gmx::BasicVector<float>>>::_Vector_impl" }
%"struct.std::_Vector_base<gmx::BasicVector<float>, std::allocator<gmx::BasicVector<float>>>::_Vector_impl" = type { %"struct.std::_Vector_base<gmx::BasicVector<float>, std::allocator<gmx::BasicVector<float>>>::_Vector_impl_data" }
%"struct.std::_Vector_base<gmx::BasicVector<float>, std::allocator<gmx::BasicVector<float>>>::_Vector_impl_data" = type { ptr, ptr, ptr }
%"class.std::unique_ptr" = type { %"struct.std::__uniq_ptr_data" }
%"struct.std::__uniq_ptr_data" = type { %"class.std::__uniq_ptr_impl" }
%"class.std::__uniq_ptr_impl" = type { %"class.std::tuple" }
%"class.std::tuple" = type { %"struct.std::_Tuple_impl" }
%"struct.std::_Tuple_impl" = type { %"struct.std::_Head_base.9" }
%"struct.std::_Head_base.9" = type { ptr }
%"class.std::unique_ptr.10" = type { %"struct.std::__uniq_ptr_data.11" }
%"struct.std::__uniq_ptr_data.11" = type { %"class.std::__uniq_ptr_impl.12" }
%"class.std::__uniq_ptr_impl.12" = type { %"class.std::tuple.13" }
%"class.std::tuple.13" = type { %"struct.std::_Tuple_impl.14" }
%"struct.std::_Tuple_impl.14" = type { %"struct.std::_Head_base.17" }
%"struct.std::_Head_base.17" = type { ptr }
%"class.std::unique_ptr.18" = type { %"struct.std::__uniq_ptr_data.19" }
%"struct.std::__uniq_ptr_data.19" = type { %"class.std::__uniq_ptr_impl.20" }
%"class.std::__uniq_ptr_impl.20" = type { %"class.std::tuple.21" }
%"class.std::tuple.21" = type { %"struct.std::_Tuple_impl.22" }
%"struct.std::_Tuple_impl.22" = type { %"struct.std::_Head_base.25" }
%"struct.std::_Head_base.25" = type { ptr }
%"class.std::unique_ptr.26" = type { %"struct.std::__uniq_ptr_data.27" }
%"struct.std::__uniq_ptr_data.27" = type { %"class.std::__uniq_ptr_impl.28" }
%"class.std::__uniq_ptr_impl.28" = type { %"class.std::tuple.29" }
%"class.std::tuple.29" = type { %"struct.std::_Tuple_impl.30" }
%"struct.std::_Tuple_impl.30" = type { %"struct.std::_Head_base.33" }
%"struct.std::_Head_base.33" = type { ptr }
%"class.std::unique_ptr.34" = type { %"struct.std::__uniq_ptr_data.35" }
%"struct.std::__uniq_ptr_data.35" = type { %"class.std::__uniq_ptr_impl.36" }
%"class.std::__uniq_ptr_impl.36" = type { %"class.std::tuple.37" }
%"class.std::tuple.37" = type { %"struct.std::_Tuple_impl.38" }
%"struct.std::_Tuple_impl.38" = type { %"struct.std::_Head_base.41" }
%"struct.std::_Head_base.41" = type { ptr }
%"class.std::unique_ptr.42" = type { %"struct.std::__uniq_ptr_data.43" }
%"struct.std::__uniq_ptr_data.43" = type { %"class.std::__uniq_ptr_impl.44" }
%"class.std::__uniq_ptr_impl.44" = type { %"class.std::tuple.45" }
%"class.std::tuple.45" = type { %"struct.std::_Tuple_impl.46" }
%"struct.std::_Tuple_impl.46" = type { %"struct.std::_Head_base.49" }
%"struct.std::_Head_base.49" = type { ptr }
%struct.t_grpopts = type <{ i32, i32, i32, i32, i32, [4 x i8], ptr, ptr, ptr, ptr, ptr, ptr, ptr, ptr, ptr, ptr, i32, [4 x i8] }>
%"class.std::unique_ptr.50" = type { %"struct.std::__uniq_ptr_data.51" }
%"struct.std::__uniq_ptr_data.51" = type { %"class.std::__uniq_ptr_impl.52" }
%"class.std::__uniq_ptr_impl.52" = type { %"class.std::tuple.53" }
%"class.std::tuple.53" = type { %"struct.std::_Tuple_impl.54" }
%"struct.std::_Tuple_impl.54" = type { %"struct.std::_Head_base.57" }
%"struct.std::_Head_base.57" = type { ptr }

; Function Attrs: mustprogress nounwind uwtable
define noundef zeroext i1 @_Z19ir_coulomb_switchedPK10t_inputrec(ptr noundef %0) #2 {
  %2 = alloca ptr, align 8
  store ptr %0, ptr %2, align 8, !tbaa !34
  %3 = load ptr, ptr %2, align 8, !tbaa !34
  %4 = getelementptr inbounds nuw %struct.t_inputrec, ptr %3, i32 0, i32 48
  %5 = load i32, ptr %4, align 4, !tbaa !170
  %6 = icmp eq i32 %5, 7
  br i1 %6, label %32, label %7

7:                                                ; preds = %1
  %8 = load ptr, ptr %2, align 8, !tbaa !34
  %9 = getelementptr inbounds nuw %struct.t_inputrec, ptr %8, i32 0, i32 48
  %10 = load i32, ptr %9, align 4, !tbaa !170
  %11 = icmp eq i32 %10, 8
  br i1 %11, label %32, label %12

12:                                               ; preds = %7
  %13 = load ptr, ptr %2, align 8, !tbaa !34
  %14 = getelementptr inbounds nuw %struct.t_inputrec, ptr %13, i32 0, i32 48
  %15 = load i32, ptr %14, align 4, !tbaa !170
  %16 = icmp eq i32 %15, 14
  br i1 %16, label %32, label %17

17:                                               ; preds = %12
  %18 = load ptr, ptr %2, align 8, !tbaa !34
  %19 = getelementptr inbounds nuw %struct.t_inputrec, ptr %18, i32 0, i32 48
  %20 = load i32, ptr %19, align 4, !tbaa !170
  %21 = icmp eq i32 %20, 15
  br i1 %21, label %32, label %22

22:                                               ; preds = %17
  %23 = load ptr, ptr %2, align 8, !tbaa !34
  %24 = getelementptr inbounds nuw %struct.t_inputrec, ptr %23, i32 0, i32 49
  %25 = load i32, ptr %24, align 8, !tbaa !171
  %26 = icmp eq i32 %25, 3
  br i1 %26, label %32, label %27

27:                                               ; preds = %22
  %28 = load ptr, ptr %2, align 8, !tbaa !34
  %29 = getelementptr inbounds nuw %struct.t_inputrec, ptr %28, i32 0, i32 49
  %30 = load i32, ptr %29, align 8, !tbaa !171
  %31 = icmp eq i32 %30, 5
  br label %32

32:                                               ; preds = %27, %22, %17, %12, %7, %1
  %33 = phi i1 [ true, %22 ], [ true, %17 ], [ true, %12 ], [ true, %7 ], [ true, %1 ], [ %31, %27 ]
  ret i1 %33
}

; Function Attrs: mustprogress nounwind uwtable
define noundef zeroext i1 @_Z28ir_coulomb_is_zero_at_cutoffPK10t_inputrec(ptr noundef %0) #2 {
  %2 = alloca ptr, align 8
  store ptr %0, ptr %2, align 8, !tbaa !34
  %3 = load ptr, ptr %2, align 8, !tbaa !34
  %4 = getelementptr inbounds nuw %struct.t_inputrec, ptr %3, i32 0, i32 6
  %5 = load i32, ptr %4, align 4, !tbaa !134
  %6 = icmp eq i32 %5, 0
  br i1 %6, label %20, label %7

7:                                                ; preds = %1
  %8 = load ptr, ptr %2, align 8, !tbaa !34
  %9 = call noundef zeroext i1 @_Z19ir_coulomb_switchedPK10t_inputrec(ptr noundef %8)
  br i1 %9, label %20, label %10

10:                                               ; preds = %7
  %11 = load ptr, ptr %2, align 8, !tbaa !34
  %12 = getelementptr inbounds nuw %struct.t_inputrec, ptr %11, i32 0, i32 49
  %13 = load i32, ptr %12, align 8, !tbaa !171
  %14 = icmp ne i32 %13, 2
  br i1 %14, label %20, label %15

15:                                               ; preds = %10
  %16 = load ptr, ptr %2, align 8, !tbaa !34
  %17 = getelementptr inbounds nuw %struct.t_inputrec, ptr %16, i32 0, i32 48
  %18 = load i32, ptr %17, align 4, !tbaa !170
  %19 = icmp eq i32 %18, 16
  br label %20

20:                                               ; preds = %15, %10, %7, %1
  %21 = phi i1 [ true, %10 ], [ true, %7 ], [ true, %1 ], [ %19, %15 ]
  ret i1 %21
}