; Function Attrs: mustprogress nofree norecurse nosync nounwind willreturn memory(argmem: read) uwtable
define noundef zeroext i1 @_Z28ir_coulomb_is_zero_at_cutoffPK10t_inputrec(ptr noundef readonly captures(none) %0) local_unnamed_addr #15 {
  %2 = getelementptr inbounds nuw i8, ptr %0, i64 36
  %3 = load i32, ptr %2, align 4, !tbaa !260
  %4 = icmp eq i32 %3, 0
  br i1 %4, label %_Z19ir_coulomb_switchedPK10t_inputrec.exit.thread, label %5

5:                                                ; preds = %1
  %6 = getelementptr inbounds nuw i8, ptr %0, i64 364
  %7 = load i32, ptr %6, align 4, !tbaa !258
  %switch.tableidx = add i32 %7, -7
  %8 = icmp ult i32 %switch.tableidx, 9
  br i1 %8, label %switch.hole_check, label %_Z19ir_coulomb_switchedPK10t_inputrec.exit

_Z19ir_coulomb_switchedPK10t_inputrec.exit:       ; preds = %switch.hole_check, %5
  %9 = getelementptr inbounds nuw i8, ptr %0, i64 368
  %10 = load i32, ptr %9, align 8, !tbaa !259
  switch i32 %10, label %11 [
    i32 5, label %_Z19ir_coulomb_switchedPK10t_inputrec.exit.thread
    i32 3, label %_Z19ir_coulomb_switchedPK10t_inputrec.exit.thread
  ]

11:                                               ; preds = %_Z19ir_coulomb_switchedPK10t_inputrec.exit
  %.not = icmp ne i32 %10, 2
  %12 = icmp eq i32 %7, 16
  %spec.select = or i1 %12, %.not
  br label %_Z19ir_coulomb_switchedPK10t_inputrec.exit.thread

switch.hole_check:                                ; preds = %5
  %switch.maskindex = trunc nuw i32 %switch.tableidx to i16
  %switch.shifted = lshr i16 387, %switch.maskindex
  %switch.lobit = trunc i16 %switch.shifted to i1
  br i1 %switch.lobit, label %_Z19ir_coulomb_switchedPK10t_inputrec.exit.thread, label %_Z19ir_coulomb_switchedPK10t_inputrec.exit

_Z19ir_coulomb_switchedPK10t_inputrec.exit.thread: ; preds = %switch.hole_check, %11, %_Z19ir_coulomb_switchedPK10t_inputrec.exit, %_Z19ir_coulomb_switchedPK10t_inputrec.exit, %1
  %13 = phi i1 [ true, %_Z19ir_coulomb_switchedPK10t_inputrec.exit ], [ true, %1 ], [ true, %_Z19ir_coulomb_switchedPK10t_inputrec.exit ], [ %spec.select, %11 ], [ true, %switch.hole_check ]
  ret i1 %13
}